; Function Attrs: mustprogress nofree norecurse nosync nounwind null_pointer_is_valid sspstrong willreturn memory(argmem: readwrite) uwtable
define internal void @count_non_uat_pref(ptr noundef readonly captures(none) %0, ptr noundef captures(none) %1) #9 {
  %3 = getelementptr inbounds nuw i8, ptr %0, i64 28
  %4 = load i32, ptr %3, align 4
  switch i32 %4, label %5 [
    i32 64, label %8
    i32 1024, label %8
    i32 8192, label %8
    i32 65536, label %8
  ]

5:                                                ; preds = %2
  %6 = load i32, ptr %1, align 4
  %7 = add i32 %6, 1
  store i32 %7, ptr %1, align 4
  br label %8

8:                                                ; preds = %2, %2, %2, %2, %5
  ret void
}